; Function Attrs: mustprogress nofree norecurse nosync nounwind willreturn memory(write, argmem: readwrite, inaccessiblemem: none) uwtable
define void @MOZ_Z__tr_align(ptr noundef captures(none) %0) local_unnamed_addr #3 {
  %2 = getelementptr inbounds nuw i8, ptr %0, i64 7052
  %3 = load i32, ptr %2, align 4, !tbaa !24
  %4 = icmp sgt i32 %3, 13
  %5 = shl i32 2, %3
  %6 = getelementptr inbounds nuw i8, ptr %0, i64 7048
  %7 = load i16, ptr %6, align 8, !tbaa !23
  %8 = trunc i32 %5 to i16
  %9 = or i16 %7, %8
  store i16 %9, ptr %6, align 8, !tbaa !23
  br i1 %4, label %10, label %32

10:                                               ; preds = %1
  %11 = trunc i16 %9 to i8
  %12 = getelementptr inbounds nuw i8, ptr %0, i64 16
  %13 = load ptr, ptr %12, align 16, !tbaa !31
  %14 = getelementptr inbounds nuw i8, ptr %0, i64 40
  %15 = load i32, ptr %14, align 8, !tbaa !32
  %16 = add i32 %15, 1
  store i32 %16, ptr %14, align 8, !tbaa !32
  %17 = zext i32 %15 to i64
  %18 = getelementptr inbounds nuw i8, ptr %13, i64 %17
  store i8 %11, ptr %18, align 1, !tbaa !25
  %19 = load i16, ptr %6, align 8, !tbaa !23
  %20 = lshr i16 %19, 8
  %21 = trunc nuw i16 %20 to i8
  %22 = load ptr, ptr %12, align 16, !tbaa !31
  %23 = load i32, ptr %14, align 8, !tbaa !32
  %24 = add i32 %23, 1
  store i32 %24, ptr %14, align 8, !tbaa !32
  %25 = zext i32 %23 to i64
  %26 = getelementptr inbounds nuw i8, ptr %22, i64 %25
  store i8 %21, ptr %26, align 1, !tbaa !25
  %27 = load i32, ptr %2, align 4, !tbaa !24
  %28 = sub nsw i32 16, %27
  %29 = lshr i32 2, %28
  %30 = trunc nuw nsw i32 %29 to i16
  store i16 %30, ptr %6, align 8, !tbaa !23
  %31 = add nsw i32 %27, -13
  br label %34

32:                                               ; preds = %1
  %33 = add nsw i32 %3, 3
  br label %34

34:                                               ; preds = %32, %10
  %35 = phi i16 [ %9, %32 ], [ %30, %10 ]
  %storemerge = phi i32 [ %33, %32 ], [ %31, %10 ]
  store i32 %storemerge, ptr %2, align 4, !tbaa !24
  %36 = icmp sgt i32 %storemerge, 9
  %37 = trunc i16 %35 to i8
  br i1 %36, label %38, label %57

38:                                               ; preds = %34
  %39 = getelementptr inbounds nuw i8, ptr %0, i64 7048
  %40 = getelementptr inbounds nuw i8, ptr %0, i64 16
  %41 = load ptr, ptr %40, align 16, !tbaa !31
  %42 = getelementptr inbounds nuw i8, ptr %0, i64 40
  %43 = load i32, ptr %42, align 8, !tbaa !32
  %44 = add i32 %43, 1
  store i32 %44, ptr %42, align 8, !tbaa !32
  %45 = zext i32 %43 to i64
  %46 = getelementptr inbounds nuw i8, ptr %41, i64 %45
  store i8 %37, ptr %46, align 1, !tbaa !25
  %47 = load i16, ptr %39, align 8, !tbaa !23
  %48 = lshr i16 %47, 8
  %49 = trunc nuw i16 %48 to i8
  %50 = load ptr, ptr %40, align 16, !tbaa !31
  %51 = load i32, ptr %42, align 8, !tbaa !32
  %52 = add i32 %51, 1
  store i32 %52, ptr %42, align 8, !tbaa !32
  %53 = zext i32 %51 to i64
  %54 = getelementptr inbounds nuw i8, ptr %50, i64 %53
  store i8 %49, ptr %54, align 1, !tbaa !25
  store i16 0, ptr %39, align 8, !tbaa !23
  %55 = load i32, ptr %2, align 4, !tbaa !24
  %56 = add nsw i32 %55, -9
  br label %59

57:                                               ; preds = %34
  %58 = add nsw i32 %storemerge, 7
  br label %59

59:                                               ; preds = %57, %38
  %60 = phi i8 [ %37, %57 ], [ 0, %38 ]
  %storemerge41 = phi i32 [ %58, %57 ], [ %56, %38 ]
  store i32 %storemerge41, ptr %2, align 4, !tbaa !24
  %61 = icmp eq i32 %storemerge41, 16
  br i1 %61, label %62, label %79

62:                                               ; preds = %59
  %63 = getelementptr inbounds nuw i8, ptr %0, i64 7048
  %64 = getelementptr inbounds nuw i8, ptr %0, i64 16
  %65 = load ptr, ptr %64, align 16, !tbaa !31
  %66 = getelementptr inbounds nuw i8, ptr %0, i64 40
  %67 = load i32, ptr %66, align 8, !tbaa !32
  %68 = add i32 %67, 1
  store i32 %68, ptr %66, align 8, !tbaa !32
  %69 = zext i32 %67 to i64
  %70 = getelementptr inbounds nuw i8, ptr %65, i64 %69
  store i8 %60, ptr %70, align 1, !tbaa !25
  %71 = load i16, ptr %63, align 8, !tbaa !23
  %72 = lshr i16 %71, 8
  %73 = trunc nuw i16 %72 to i8
  %74 = load ptr, ptr %64, align 16, !tbaa !31
  %75 = load i32, ptr %66, align 8, !tbaa !32
  %76 = add i32 %75, 1
  store i32 %76, ptr %66, align 8, !tbaa !32
  %77 = zext i32 %75 to i64
  %78 = getelementptr inbounds nuw i8, ptr %74, i64 %77
  store i8 %73, ptr %78, align 1, !tbaa !25
  store i16 0, ptr %63, align 8, !tbaa !23
  br label %.sink.split.i

79:                                               ; preds = %59
  %80 = icmp sgt i32 %storemerge41, 7
  br i1 %80, label %81, label %bi_flush.exit

81:                                               ; preds = %79
  %82 = getelementptr inbounds nuw i8, ptr %0, i64 7048
  %83 = getelementptr inbounds nuw i8, ptr %0, i64 16
  %84 = load ptr, ptr %83, align 16, !tbaa !31
  %85 = getelementptr inbounds nuw i8, ptr %0, i64 40
  %86 = load i32, ptr %85, align 8, !tbaa !32
  %87 = add i32 %86, 1
  store i32 %87, ptr %85, align 8, !tbaa !32
  %88 = zext i32 %86 to i64
  %89 = getelementptr inbounds nuw i8, ptr %84, i64 %88
  store i8 %60, ptr %89, align 1, !tbaa !25
  %90 = load i16, ptr %82, align 8, !tbaa !23
  %91 = lshr i16 %90, 8
  store i16 %91, ptr %82, align 8, !tbaa !23
  %92 = load i32, ptr %2, align 4, !tbaa !24
  %93 = add nsw i32 %92, -8
  br label %.sink.split.i

.sink.split.i:                                    ; preds = %81, %62
  %.sink.i = phi i32 [ %93, %81 ], [ 0, %62 ]
  store i32 %.sink.i, ptr %2, align 4, !tbaa !24
  br label %bi_flush.exit

bi_flush.exit:                                    ; preds = %79, %.sink.split.i
  ret void
}